; Function Attrs: nounwind uwtable
define dso_local noundef zeroext i1 @type_is_rowtype(i32 noundef %0) local_unnamed_addr #0 {
  %2 = alloca i32, align 4
  %3 = icmp eq i32 %0, 2249
  br i1 %3, label %26, label %4

4:                                                ; preds = %1
  %5 = zext i32 %0 to i64
  %6 = tail call ptr @SearchSysCache1(i32 noundef 82, i64 noundef %5) #8
  %.not.i = icmp eq ptr %6, null
  br i1 %.not.i, label %get_typtype.exit.thread, label %get_typtype.exit

get_typtype.exit:                                 ; preds = %4
  %7 = getelementptr i8, ptr %6, i64 16
  %.val.i = load ptr, ptr %7, align 8
  %8 = getelementptr inbounds nuw i8, ptr %.val.i, i64 22
  %9 = load i8, ptr %8, align 2
  %10 = zext i8 %9 to i64
  %11 = getelementptr inbounds nuw i8, ptr %.val.i, i64 %10
  %12 = getelementptr inbounds nuw i8, ptr %11, i64 79
  %13 = load i8, ptr %12, align 1
  tail call void @ReleaseSysCache(ptr noundef nonnull %6) #8
  switch i8 %13, label %get_typtype.exit.thread [
    i8 99, label %26
    i8 100, label %14
  ]

14:                                               ; preds = %get_typtype.exit
  call void @llvm.lifetime.start.p0(i64 4, ptr nonnull %2) #8
  %15 = call i32 @getBaseTypeAndTypmod(i32 noundef %0, ptr noundef nonnull %2)
  call void @llvm.lifetime.end.p0(i64 4, ptr nonnull %2) #8
  %16 = zext i32 %15 to i64
  %17 = tail call ptr @SearchSysCache1(i32 noundef 82, i64 noundef %16) #8
  %.not.i4 = icmp eq ptr %17, null
  br i1 %.not.i4, label %get_typtype.exit.thread, label %get_typtype.exit7

get_typtype.exit7:                                ; preds = %14
  %18 = getelementptr i8, ptr %17, i64 16
  %.val.i5 = load ptr, ptr %18, align 8
  %19 = getelementptr inbounds nuw i8, ptr %.val.i5, i64 22
  %20 = load i8, ptr %19, align 2
  %21 = zext i8 %20 to i64
  %22 = getelementptr inbounds nuw i8, ptr %.val.i5, i64 %21
  %23 = getelementptr inbounds nuw i8, ptr %22, i64 79
  %24 = load i8, ptr %23, align 1
  tail call void @ReleaseSysCache(ptr noundef nonnull %17) #8
  %25 = icmp eq i8 %24, 99
  br i1 %25, label %26, label %get_typtype.exit.thread

get_typtype.exit.thread:                          ; preds = %14, %4, %get_typtype.exit, %get_typtype.exit7
  br label %26

26:                                               ; preds = %get_typtype.exit7, %get_typtype.exit, %1, %get_typtype.exit.thread
  %.0 = phi i1 [ false, %get_typtype.exit.thread ], [ true, %1 ], [ true, %get_typtype.exit ], [ true, %get_typtype.exit7 ]
  ret i1 %.0
}